(dp0
S'A'
p1
S'move_to 31.578125 -20.828125\nline_to 27.812500 -34.281250\ncurve_to 27.738281 -34.000000 27.644531 -33.632812 27.531250 -33.187500\nline_to 26.687500 -30.125000\nline_to 25.843750 -27.125000\ncurve_to 25.207031 -24.695312 24.878906 -23.472656 24.859375 -23.453125\ncurve_to 25.773438 -22.203125 26.488281 -21.097656 27.000000 -20.140625\ncurve_to 27.613281 -19.046875 28.210938 -17.742188 28.796875 -16.234375\nline_to 29.078125 -16.781250\ncurve_to 29.992188 -18.519531 30.828125 -19.867188 31.578125 -20.828125\nclose path\nmove_to 23.281250 -18.609375\nline_to 23.062500 -17.921875\ncurve_to 21.707031 -13.660156 20.234375 -10.140625 18.640625 -7.359375\ncurve_to 16.992188 -4.515625 15.257812 -2.425781 13.437500 -1.093750\ncurve_to 11.582031 0.300781 9.566406 1.000000 7.390625 1.000000\ncurve_to 5.929688 1.000000 4.617188 0.691406 3.453125 0.078125\ncurve_to 2.347656 -0.472656 1.441406 -1.328125 0.734375 -2.484375\ncurve_to 0.078125 -3.554688 -0.250000 -4.781250 -0.250000 -6.156250\ncurve_to -0.250000 -8.031250 0.347656 -9.648438 1.546875 -11.015625\ncurve_to 2.742188 -12.347656 4.160156 -13.015625 5.796875 -13.015625\ncurve_to 6.734375 -13.015625 7.296875 -12.750000 7.484375 -12.218750\nline_to 7.734375 -11.515625\ncurve_to 8.066406 -10.546875 8.796875 -10.062500 9.921875 -10.062500\ncurve_to 11.066406 -10.062500 12.144531 -10.507812 13.156250 -11.406250\ncurve_to 14.187500 -12.269531 15.191406 -13.628906 16.171875 -15.484375\ncurve_to 17.128906 -17.335938 18.101562 -19.660156 19.093750 -22.453125\ncurve_to 18.175781 -22.859375 17.367188 -23.062500 16.671875 -23.062500\ncurve_to 16.015625 -23.062500 15.453125 -22.867188 14.984375 -22.484375\ncurve_to 14.535156 -22.117188 14.312500 -21.628906 14.312500 -21.015625\ncurve_to 14.312500 -20.847656 14.406250 -20.457031 14.593750 -19.843750\ncurve_to 14.664062 -19.632812 14.703125 -19.472656 14.703125 -19.359375\ncurve_to 14.703125 -19.066406 14.500000 -18.812500 14.093750 -18.593750\ncurve_to 13.718750 -18.375000 13.265625 -18.265625 12.734375 -18.265625\ncurve_to 11.648438 -18.265625 10.734375 -18.707031 9.984375 -19.593750\ncurve_to 9.234375 -20.476562 8.859375 -21.531250 8.859375 -22.750000\ncurve_to 8.859375 -24.476562 9.515625 -25.957031 10.828125 -27.187500\ncurve_to 12.117188 -28.394531 13.703125 -29.000000 15.578125 -29.000000\ncurve_to 17.210938 -29.000000 18.945312 -28.429688 20.781250 -27.296875\nline_to 20.984375 -27.937500\ncurve_to 22.015625 -31.375000 22.742188 -33.925781 23.171875 -35.593750\ncurve_to 23.472656 -36.757812 23.625000 -37.796875 23.625000 -38.703125\ncurve_to 23.625000 -39.660156 23.445312 -40.472656 23.093750 -41.140625\ncurve_to 22.695312 -41.847656 22.039062 -42.562500 21.125000 -43.281250\ncurve_to 20.187500 -44.019531 19.718750 -44.675781 19.718750 -45.250000\ncurve_to 19.718750 -45.769531 19.894531 -46.187500 20.250000 -46.500000\ncurve_to 20.625000 -46.832031 21.070312 -47.000000 21.593750 -47.000000\ncurve_to 22.082031 -47.000000 22.570312 -46.906250 23.062500 -46.718750\nline_to 25.203125 -45.953125\ncurve_to 26.867188 -45.316406 28.546875 -45.000000 30.234375 -45.000000\ncurve_to 31.753906 -45.000000 33.515625 -45.390625 35.515625 -46.171875\ncurve_to 37.035156 -46.722656 38.050781 -47.000000 38.562500 -47.000000\ncurve_to 39.082031 -47.000000 39.519531 -46.859375 39.875000 -46.578125\ncurve_to 40.195312 -46.242188 40.359375 -45.843750 40.359375 -45.375000\ncurve_to 40.359375 -44.781250 39.898438 -44.109375 38.984375 -43.359375\ncurve_to 38.117188 -42.617188 37.507812 -41.941406 37.156250 -41.328125\ncurve_to 36.812500 -40.691406 36.640625 -39.972656 36.640625 -39.171875\ncurve_to 36.640625 -38.398438 36.847656 -37.234375 37.265625 -35.671875\nline_to 44.406250 -10.343750\ncurve_to 44.757812 -9.144531 45.062500 -8.253906 45.312500 -7.671875\ncurve_to 45.593750 -6.910156 45.921875 -6.257812 46.296875 -5.718750\ncurve_to 46.671875 -5.144531 47.109375 -4.671875 47.609375 -4.296875\ncurve_to 48.023438 -3.941406 48.632812 -3.550781 49.437500 -3.125000\ncurve_to 50.281250 -2.707031 50.703125 -2.210938 50.703125 -1.640625\ncurve_to 50.703125 -0.679688 50.066406 -0.203125 48.796875 -0.203125\nline_to 48.171875 -0.203125\nline_to 34.734375 -0.203125\ncurve_to 34.078125 -0.203125 33.585938 -0.304688 33.265625 -0.515625\ncurve_to 32.953125 -0.734375 32.796875 -1.085938 32.796875 -1.578125\ncurve_to 32.796875 -1.953125 32.890625 -2.265625 33.078125 -2.515625\ncurve_to 33.222656 -2.703125 33.632812 -2.960938 34.312500 -3.296875\ncurve_to 35.269531 -3.785156 35.750000 -4.476562 35.750000 -5.375000\ncurve_to 35.750000 -6.019531 35.644531 -6.675781 35.437500 -7.343750\nline_to 33.015625 -16.031250\ncurve_to 32.378906 -15.093750 31.734375 -13.890625 31.078125 -12.421875\nline_to 30.406250 -10.921875\ncurve_to 29.937500 -9.867188 29.269531 -9.343750 28.406250 -9.343750\ncurve_to 27.914062 -9.343750 27.531250 -9.484375 27.250000 -9.765625\ncurve_to 26.968750 -9.972656 26.695312 -10.472656 26.437500 -11.265625\ncurve_to 25.644531 -14.117188 24.593750 -16.566406 23.281250 -18.609375\nclose path\nmove_to 51.000000 0.000000'
p2
sS'C'
p3
S'move_to 37.484375 -16.937500\ncurve_to 38.484375 -16.937500 38.984375 -16.156250 38.984375 -14.593750\ncurve_to 38.984375 -11.738281 38.281250 -9.113281 36.875000 -6.718750\ncurve_to 35.445312 -4.343750 33.515625 -2.468750 31.078125 -1.093750\ncurve_to 28.597656 0.300781 25.906250 1.000000 23.000000 1.000000\ncurve_to 19.968750 1.000000 17.156250 0.406250 14.562500 -0.781250\ncurve_to 11.906250 -2.007812 9.664062 -3.710938 7.843750 -5.890625\ncurve_to 5.945312 -8.085938 4.492188 -10.707031 3.484375 -13.750000\ncurve_to 2.453125 -16.789062 1.937500 -20.023438 1.937500 -23.453125\ncurve_to 1.937500 -26.160156 2.191406 -28.628906 2.703125 -30.859375\ncurve_to 3.242188 -33.179688 4.007812 -35.281250 5.000000 -37.156250\ncurve_to 5.957031 -39.050781 7.187500 -40.742188 8.687500 -42.234375\ncurve_to 12.476562 -46.078125 16.828125 -48.000000 21.734375 -48.000000\ncurve_to 22.878906 -48.000000 23.894531 -47.914062 24.781250 -47.750000\ncurve_to 25.843750 -47.562500 27.144531 -47.234375 28.687500 -46.765625\ncurve_to 30.000000 -46.359375 30.937500 -46.156250 31.500000 -46.156250\ncurve_to 31.988281 -46.156250 32.539062 -46.320312 33.156250 -46.656250\ncurve_to 33.664062 -46.914062 34.050781 -47.046875 34.312500 -47.046875\ncurve_to 35.300781 -47.046875 36.179688 -46.132812 36.953125 -44.312500\ncurve_to 37.703125 -42.468750 38.078125 -40.289062 38.078125 -37.781250\ncurve_to 38.078125 -34.875000 37.503906 -32.222656 36.359375 -29.828125\ncurve_to 35.203125 -27.421875 33.628906 -25.539062 31.640625 -24.187500\ncurve_to 29.628906 -22.812500 27.406250 -22.125000 24.968750 -22.125000\ncurve_to 23.343750 -22.125000 21.890625 -22.445312 20.609375 -23.093750\ncurve_to 19.242188 -23.757812 18.195312 -24.648438 17.468750 -25.765625\ncurve_to 16.718750 -26.910156 16.343750 -28.117188 16.343750 -29.390625\ncurve_to 16.343750 -30.835938 16.800781 -32.097656 17.718750 -33.171875\ncurve_to 18.613281 -34.222656 19.671875 -34.750000 20.890625 -34.750000\ncurve_to 21.421875 -34.750000 21.851562 -34.593750 22.187500 -34.281250\ncurve_to 22.539062 -33.988281 22.718750 -33.585938 22.718750 -33.078125\ncurve_to 22.718750 -32.453125 22.328125 -31.941406 21.546875 -31.546875\ncurve_to 20.492188 -31.035156 19.968750 -30.410156 19.968750 -29.671875\ncurve_to 19.968750 -28.929688 20.296875 -28.304688 20.953125 -27.796875\ncurve_to 21.628906 -27.265625 22.406250 -27.000000 23.281250 -27.000000\ncurve_to 24.164062 -27.000000 25.007812 -27.238281 25.812500 -27.718750\ncurve_to 26.562500 -28.195312 27.171875 -28.847656 27.640625 -29.671875\ncurve_to 28.078125 -30.460938 28.296875 -31.351562 28.296875 -32.343750\ncurve_to 28.296875 -33.531250 27.992188 -34.597656 27.390625 -35.546875\ncurve_to 26.773438 -36.492188 25.941406 -37.250000 24.890625 -37.812500\ncurve_to 23.816406 -38.343750 22.656250 -38.609375 21.406250 -38.609375\ncurve_to 19.375000 -38.609375 17.570312 -37.960938 16.000000 -36.671875\ncurve_to 14.425781 -35.390625 13.195312 -33.582031 12.312500 -31.250000\ncurve_to 11.414062 -28.914062 10.968750 -26.265625 10.968750 -23.296875\ncurve_to 10.968750 -20.890625 11.296875 -18.710938 11.953125 -16.765625\ncurve_to 12.628906 -14.765625 13.578125 -13.015625 14.796875 -11.515625\ncurve_to 15.992188 -10.035156 17.437500 -8.882812 19.125000 -8.062500\ncurve_to 20.812500 -7.250000 22.601562 -6.843750 24.500000 -6.843750\ncurve_to 26.070312 -6.843750 27.597656 -7.148438 29.078125 -7.765625\ncurve_to 30.484375 -8.359375 31.750000 -9.234375 32.875000 -10.390625\ncurve_to 34.000000 -11.609375 34.972656 -13.078125 35.796875 -14.796875\ncurve_to 36.304688 -15.835938 36.644531 -16.453125 36.812500 -16.640625\ncurve_to 36.945312 -16.835938 37.171875 -16.937500 37.484375 -16.937500\nclose path\nmove_to 40.000000 0.000000'
p4
s.